target datalayout = "e-m:e-p270:32:32-p271:32:32-p272:64:64-i64:64-i128:128-f80:128-n8:16:32:64-S128"
target triple = "x86_64-pc-linux-gnu"

@.str.19 = private unnamed_addr constant [13 x i8] c"            \00", align 1
@.str.20 = private unnamed_addr constant [8 x i8] c"%-8.5f \00", align 1
@.str.21 = private unnamed_addr constant [3 x i8] c"\0A\0A\00", align 1
@.str.22 = private unnamed_addr constant [11 x i8] c"%-8.5f    \00", align 1
@.str.23 = private unnamed_addr constant [2 x i8] c"\0A\00", align 1

; Function Attrs: nounwind uwtable
define internal void @PrintOutput(ptr noundef %0) #0 {
  %2 = alloca ptr, align 8
  %3 = alloca i32, align 4
  %4 = alloca i32, align 4
  %5 = alloca double, align 8
  %6 = alloca double, align 8
  %7 = alloca double, align 8
  %8 = alloca double, align 8
  %9 = alloca ptr, align 8
  store ptr %0, ptr %2, align 8, !tbaa !4
  call void @llvm.lifetime.start.p0(i64 4, ptr %3) #5
  call void @llvm.lifetime.start.p0(i64 4, ptr %4) #5
  call void @llvm.lifetime.start.p0(i64 8, ptr %5) #5
  call void @llvm.lifetime.start.p0(i64 8, ptr %6) #5
  call void @llvm.lifetime.start.p0(i64 8, ptr %7) #5
  call void @llvm.lifetime.start.p0(i64 8, ptr %8) #5
  call void @llvm.lifetime.start.p0(i64 8, ptr %9) #5
  store double 3.125000e-02, ptr %5, align 8, !tbaa !16
  store double 3.125000e-02, ptr %6, align 8, !tbaa !16
  %10 = load ptr, ptr %2, align 8, !tbaa !4
  %11 = call ptr @N_VGetArrayPointer(ptr noundef %10)
  store ptr %11, ptr %9, align 8, !tbaa !24
  %12 = call i32 (ptr, ...) @printf(ptr noundef @.str.19)
  store i32 1, ptr %3, align 4, !tbaa !12
  br label %13

13:                                               ; preds = %23, %1
  %14 = load i32, ptr %3, align 4, !tbaa !12
  %15 = icmp sle i32 %14, 31
  br i1 %15, label %16, label %26

16:                                               ; preds = %13
  %17 = load i32, ptr %3, align 4, !tbaa !12
  %18 = sitofp i32 %17 to double
  %19 = load double, ptr %5, align 8, !tbaa !16
  %20 = fmul double %18, %19
  store double %20, ptr %7, align 8, !tbaa !16
  %21 = load double, ptr %7, align 8, !tbaa !16
  %22 = call i32 (ptr, ...) @printf(ptr noundef @.str.20, double noundef %21)
  br label %23

23:                                               ; preds = %16
  %24 = load i32, ptr %3, align 4, !tbaa !12
  %25 = add nsw i32 %24, 3
  store i32 %25, ptr %3, align 4, !tbaa !12
  br label %13

26:                                               ; preds = %13
  %27 = call i32 (ptr, ...) @printf(ptr noundef @.str.21)
  store i32 1, ptr %4, align 4, !tbaa !12
  br label %28

28:                                               ; preds = %58, %26
  %29 = load i32, ptr %4, align 4, !tbaa !12
  %30 = icmp sle i32 %29, 31
  br i1 %30, label %31, label %61

31:                                               ; preds = %28
  %32 = load i32, ptr %4, align 4, !tbaa !12
  %33 = sitofp i32 %32 to double
  %34 = load double, ptr %6, align 8, !tbaa !16
  %35 = fmul double %33, %34
  store double %35, ptr %8, align 8, !tbaa !16
  %36 = load double, ptr %8, align 8, !tbaa !16
  %37 = call i32 (ptr, ...) @printf(ptr noundef @.str.22, double noundef %36)
  store i32 1, ptr %3, align 4, !tbaa !12
  br label %38

38:                                               ; preds = %53, %31
  %39 = load i32, ptr %3, align 4, !tbaa !12
  %40 = icmp sle i32 %39, 31
  br i1 %40, label %41, label %56

41:                                               ; preds = %38
  %42 = load ptr, ptr %9, align 8, !tbaa !24
  %43 = load i32, ptr %4, align 4, !tbaa !12
  %44 = sub nsw i32 %43, 1
  %45 = load i32, ptr %3, align 4, !tbaa !12
  %46 = sub nsw i32 %45, 1
  %47 = mul nsw i32 %46, 31
  %48 = add nsw i32 %44, %47
  %49 = sext i32 %48 to i64
  %50 = getelementptr inbounds double, ptr %42, i64 %49
  %51 = load double, ptr %50, align 8, !tbaa !16
  %52 = call i32 (ptr, ...) @printf(ptr noundef @.str.20, double noundef %51)
  br label %53

53:                                               ; preds = %41
  %54 = load i32, ptr %3, align 4, !tbaa !12
  %55 = add nsw i32 %54, 3
  store i32 %55, ptr %3, align 4, !tbaa !12
  br label %38

56:                                               ; preds = %38
  %57 = call i32 (ptr, ...) @printf(ptr noundef @.str.23)
  br label %58

58:                                               ; preds = %56
  %59 = load i32, ptr %4, align 4, !tbaa !12
  %60 = add nsw i32 %59, 3
  store i32 %60, ptr %4, align 4, !tbaa !12
  br label %28

61:                                               ; preds = %28
  call void @llvm.lifetime.end.p0(i64 8, ptr %9) #5
  call void @llvm.lifetime.end.p0(i64 8, ptr %8) #5
  call void @llvm.lifetime.end.p0(i64 8, ptr %7) #5
  call void @llvm.lifetime.end.p0(i64 8, ptr %6) #5
  call void @llvm.lifetime.end.p0(i64 8, ptr %5) #5
  call void @llvm.lifetime.end.p0(i64 4, ptr %4) #5
  call void @llvm.lifetime.end.p0(i64 4, ptr %3) #5
  ret void
}